target datalayout = "e-m:e-p270:32:32-p271:32:32-p272:64:64-i64:64-i128:128-f80:128-n8:16:32:64-S128"
target triple = "x86_64-pc-linux-gnu"

%struct.stat = type { i64, i64, i64, i32, i32, i32, i32, i64, i64, i64, i64, %struct.timespec, %struct.timespec, %struct.timespec, [3 x i64] }
%struct.timespec = type { i64, i64 }

@.str.14 = private unnamed_addr constant [17 x i8] c"in ooxml_hwp_cb\0A\00", align 1
@.str.15 = private unnamed_addr constant [14 x i8] c"ooxml_hwp.xml\00", align 1
@.str.16 = private unnamed_addr constant [36 x i8] c"ooxml_hwp_cb: xmlReaderForFd error\0A\00", align 1
@num_ooxml_hwp_keys = internal global i64 7, align 8
@.str.17 = private unnamed_addr constant [64 x i8] c"ooxml_hwp_cb: encountered issue in parsing properties document\0A\00", align 1
@.str.18 = private unnamed_addr constant [47 x i8] c"ooxml_updatelimits: Can't fstat descriptor %d\0A\00", align 1

; Function Attrs: nounwind uwtable
define internal i32 @ooxml_updatelimits(i32 noundef %0, ptr noundef %1) #0 {
  %3 = alloca i32, align 4
  %4 = alloca i32, align 4
  %5 = alloca ptr, align 8
  %6 = alloca %struct.stat, align 8
  store i32 %0, ptr %4, align 4
  store ptr %1, ptr %5, align 8
  %7 = load i32, ptr %4, align 4
  %8 = call i32 @fstat(i32 noundef %7, ptr noundef %6) #6
  %9 = icmp eq i32 %8, -1
  br i1 %9, label %10, label %12

10:                                               ; preds = %2
  %11 = load i32, ptr %4, align 4
  call void (ptr, ...) @cli_errmsg(ptr noundef @.str.18, i32 noundef %11)
  store i32 11, ptr %3, align 4
  br label %17

12:                                               ; preds = %2
  %13 = load ptr, ptr %5, align 8
  %14 = getelementptr inbounds %struct.stat, ptr %6, i32 0, i32 8
  %15 = load i64, ptr %14, align 8
  %16 = call i32 @cli_updatelimits(ptr noundef %13, i64 noundef %15)
  store i32 %16, ptr %3, align 4
  br label %17

17:                                               ; preds = %12, %10
  %18 = load i32, ptr %3, align 4
  ret i32 %18
}

; Function Attrs: nounwind uwtable
define internal i32 @ooxml_hwp_cb(i32 noundef %0, ptr noundef %1, ptr noundef %2, ptr noundef %3, i32 noundef %4) #0 {
  %6 = alloca i32, align 4
  %7 = alloca i32, align 4
  %8 = alloca ptr, align 8
  %9 = alloca ptr, align 8
  %10 = alloca ptr, align 8
  %11 = alloca i32, align 4
  %12 = alloca i32, align 4
  %13 = alloca ptr, align 8
  store i32 %0, ptr %7, align 4
  store ptr %1, ptr %8, align 8
  store ptr %2, ptr %9, align 8
  store ptr %3, ptr %10, align 8
  store i32 %4, ptr %11, align 4
  store i32 0, ptr %12, align 4
  store ptr null, ptr %13, align 8
  call void (ptr, ...) @cli_dbgmsg(ptr noundef @.str.14)
  %14 = load i32, ptr %7, align 4
  %15 = load ptr, ptr %9, align 8
  %16 = call i32 @ooxml_updatelimits(i32 noundef %14, ptr noundef %15)
  store i32 %16, ptr %12, align 4
  %17 = load i32, ptr %12, align 4
  %18 = icmp ne i32 %17, 0
  br i1 %18, label %19, label %21

19:                                               ; preds = %5
  %20 = load i32, ptr %12, align 4
  store i32 %20, ptr %6, align 4
  br label %46

21:                                               ; preds = %5
  %22 = load i32, ptr %7, align 4
  %23 = call ptr @xmlReaderForFd(i32 noundef %22, ptr noundef @.str.15, ptr noundef null, i32 noundef 2080)
  store ptr %23, ptr %13, align 8
  %24 = load ptr, ptr %13, align 8
  %25 = icmp eq ptr %24, null
  br i1 %25, label %26, label %27

26:                                               ; preds = %21
  call void (ptr, ...) @cli_dbgmsg(ptr noundef @.str.16)
  store i32 0, ptr %6, align 4
  br label %46

27:                                               ; preds = %21
  %28 = load ptr, ptr %9, align 8
  %29 = load ptr, ptr %13, align 8
  %30 = load i64, ptr @num_ooxml_hwp_keys, align 8
  %31 = call i32 @cli_msxml_parse_document(ptr noundef %28, ptr noundef %29, ptr noundef @ooxml_hwp_keys, i64 noundef %30, i32 noundef 1, ptr noundef null)
  store i32 %31, ptr %12, align 4
  %32 = load i32, ptr %12, align 4
  %33 = icmp ne i32 %32, 0
  br i1 %33, label %34, label %41

34:                                               ; preds = %27
  %35 = load i32, ptr %12, align 4
  %36 = icmp ne i32 %35, 21
  br i1 %36, label %37, label %41

37:                                               ; preds = %34
  %38 = load i32, ptr %12, align 4
  %39 = icmp ne i32 %38, 22
  br i1 %39, label %40, label %41

40:                                               ; preds = %37
  call void (ptr, ...) @cli_warnmsg(ptr noundef @.str.17)
  br label %41

41:                                               ; preds = %40, %37, %34, %27
  %42 = load ptr, ptr %13, align 8
  %43 = call i32 @xmlTextReaderClose(ptr noundef %42)
  %44 = load ptr, ptr %13, align 8
  call void @xmlFreeTextReader(ptr noundef %44)
  %45 = load i32, ptr %12, align 4
  store i32 %45, ptr %6, align 4
  br label %46

46:                                               ; preds = %41, %26, %19
  %47 = load i32, ptr %6, align 4
  ret i32 %47
}