; Function Attrs: nounwind uwtable
define internal i32 @ooxml_hwp_cb(i32 noundef %0, ptr nocapture readnone %1, ptr noundef %2, ptr nocapture readnone %3, i32 %4) #0 {
  %6 = alloca %struct.stat, align 8
  tail call void (ptr, ...) @cli_dbgmsg(ptr noundef nonnull @.str.14) #6
  call void @llvm.lifetime.start.p0(i64 144, ptr nonnull %6)
  %7 = call i32 @fstat(i32 noundef %0, ptr noundef nonnull %6) #6
  %8 = icmp eq i32 %7, -1
  br i1 %8, label %ooxml_updatelimits.exit.thread, label %ooxml_updatelimits.exit

ooxml_updatelimits.exit.thread:                   ; preds = %5
  tail call void (ptr, ...) @cli_errmsg(ptr noundef nonnull @.str.18, i32 noundef %0) #6
  call void @llvm.lifetime.end.p0(i64 144, ptr nonnull %6)
  br label %21

ooxml_updatelimits.exit:                          ; preds = %5
  %9 = getelementptr inbounds i8, ptr %6, i64 48
  %10 = load i64, ptr %9, align 8
  %11 = tail call i32 @cli_updatelimits(ptr noundef %2, i64 noundef %10) #6
  call void @llvm.lifetime.end.p0(i64 144, ptr nonnull %6)
  %.not = icmp eq i32 %11, 0
  br i1 %.not, label %12, label %21

12:                                               ; preds = %ooxml_updatelimits.exit
  %13 = tail call ptr @xmlReaderForFd(i32 noundef %0, ptr noundef nonnull @.str.15, ptr noundef null, i32 noundef 2080) #6
  %14 = icmp eq ptr %13, null
  br i1 %14, label %15, label %16

15:                                               ; preds = %12
  tail call void (ptr, ...) @cli_dbgmsg(ptr noundef nonnull @.str.16) #6
  br label %21

16:                                               ; preds = %12
  %17 = tail call i32 @cli_msxml_parse_document(ptr noundef %2, ptr noundef nonnull %13, ptr noundef nonnull @ooxml_hwp_keys, i64 noundef 7, i32 noundef 1, ptr noundef null) #6
  switch i32 %17, label %18 [
    i32 22, label %19
    i32 21, label %19
    i32 0, label %19
  ]

18:                                               ; preds = %16
  tail call void (ptr, ...) @cli_warnmsg(ptr noundef nonnull @.str.17) #6
  br label %19

19:                                               ; preds = %16, %16, %16, %18
  %20 = tail call i32 @xmlTextReaderClose(ptr noundef nonnull %13) #6
  tail call void @xmlFreeTextReader(ptr noundef nonnull %13) #6
  br label %21

21:                                               ; preds = %ooxml_updatelimits.exit.thread, %ooxml_updatelimits.exit, %19, %15
  %.0 = phi i32 [ 0, %15 ], [ %17, %19 ], [ %11, %ooxml_updatelimits.exit ], [ 11, %ooxml_updatelimits.exit.thread ]
  ret i32 %.0
}